; Function Attrs: mustprogress uwtable
define noundef ptr @CreateLSTMDataForScript_75(i32 noundef %script, ptr noundef nonnull align 4 dereferenceable(4) %status) local_unnamed_addr #1 personality ptr @__gxx_personality_v0 {
entry:
  %name = alloca %"class.icu_75::UnicodeString", align 8
  %namebuf = alloca %"class.icu_75::CharString", align 8
  %rb = alloca %"class.icu_75::LocalUResourceBundlePointer", align 8
  switch i32 %script, label %return [
    i32 38, label %if.end
    i32 28, label %if.end
    i32 24, label %if.end
    i32 23, label %if.end
  ]

if.end:                                           ; preds = %entry, %entry, %entry, %entry
  call void @_ZN6icu_7511defaultLSTME11UScriptCodeR10UErrorCode(ptr nonnull sret(%"class.icu_75::UnicodeString") align 8 %name, i32 noundef %script, ptr noundef nonnull align 4 dereferenceable(4) %status)
  %0 = load i32, ptr %status, align 4
  %cmp.i = icmp slt i32 %0, 1
  br i1 %cmp.i, label %if.end7, label %cleanup32

lpad:                                             ; preds = %if.end7
  %1 = landingpad { ptr, i32 }
          cleanup
  br label %ehcleanup33

if.end7:                                          ; preds = %if.end
  invoke void @_ZN6icu_7515MaybeStackArrayIcLi40EEC1Ev(ptr noundef nonnull align 8 dereferenceable(53) %namebuf)
          to label %invoke.cont8 unwind label %lpad

invoke.cont8:                                     ; preds = %if.end7
  %len.i = getelementptr inbounds i8, ptr %namebuf, i64 56
  store i32 0, ptr %len.i, align 8
  %2 = load ptr, ptr %namebuf, align 8
  store i8 0, ptr %2, align 1
  %call11 = invoke noundef nonnull align 8 dereferenceable(60) ptr @_ZN6icu_7510CharString20appendInvariantCharsERKNS_13UnicodeStringER10UErrorCode(ptr noundef nonnull align 8 dereferenceable(60) %namebuf, ptr noundef nonnull align 8 dereferenceable(64) %name, ptr noundef nonnull align 4 dereferenceable(4) %status)
          to label %invoke.cont10 unwind label %lpad9

invoke.cont10:                                    ; preds = %invoke.cont8
  %call13 = invoke noundef i32 @_ZNK6icu_7510CharString11lastIndexOfEc(ptr noundef nonnull align 8 dereferenceable(60) %namebuf, i8 noundef signext 46)
          to label %invoke.cont12 unwind label %lpad9

invoke.cont12:                                    ; preds = %invoke.cont10
  %call15 = invoke noundef nonnull align 8 dereferenceable(60) ptr @_ZN6icu_7510CharString8truncateEi(ptr noundef nonnull align 8 dereferenceable(60) %call11, i32 noundef %call13)
          to label %invoke.cont14 unwind label %lpad9

invoke.cont14:                                    ; preds = %invoke.cont12
  %3 = load ptr, ptr %namebuf, align 8
  %call19 = invoke ptr @ures_openDirect_75(ptr noundef nonnull @.str.8, ptr noundef %3, ptr noundef nonnull %status)
          to label %invoke.cont20 unwind label %lpad9

invoke.cont20:                                    ; preds = %invoke.cont14
  store ptr %call19, ptr %rb, align 8
  %4 = load i32, ptr %status, align 4
  %cmp.i14 = icmp slt i32 %4, 1
  br i1 %cmp.i14, label %if.end26, label %cleanup

lpad9:                                            ; preds = %invoke.cont14, %invoke.cont12, %invoke.cont10, %invoke.cont8
  %5 = landingpad { ptr, i32 }
          cleanup
  br label %ehcleanup

if.end26:                                         ; preds = %invoke.cont20
  store ptr null, ptr %rb, align 8
  %call.i = call noundef ptr @_ZN6icu_757UMemorynwEm(i64 noundef 248) #20
  %new.isnull.i = icmp eq ptr %call.i, null
  br i1 %new.isnull.i, label %_ZN6icu_7527LocalUResourceBundlePointerD2Ev.exit, label %new.notnull.i

new.notnull.i:                                    ; preds = %if.end26
  invoke void @_ZN6icu_758LSTMDataC1EP15UResourceBundleR10UErrorCode(ptr noundef nonnull align 8 dereferenceable(248) %call.i, ptr noundef %call19, ptr noundef nonnull align 4 dereferenceable(4) %status)
          to label %_ZN6icu_7527LocalUResourceBundlePointerD2Ev.exit unwind label %lpad.i

lpad.i:                                           ; preds = %new.notnull.i
  %6 = landingpad { ptr, i32 }
          cleanup
  call void @_ZN6icu_757UMemorydlEPv(ptr noundef nonnull %call.i) #20
  call void @_ZN6icu_7527LocalUResourceBundlePointerD2Ev(ptr noundef nonnull align 8 dereferenceable(8) %rb) #20
  br label %ehcleanup

cleanup:                                          ; preds = %invoke.cont20
  %cmp.not.i = icmp eq ptr %call19, null
  br i1 %cmp.not.i, label %_ZN6icu_7527LocalUResourceBundlePointerD2Ev.exit, label %if.then.i

if.then.i:                                        ; preds = %cleanup
  invoke void @ures_close_75(ptr noundef nonnull %call19)
          to label %_ZN6icu_7527LocalUResourceBundlePointerD2Ev.exit unwind label %terminate.lpad.i

terminate.lpad.i:                                 ; preds = %if.then.i
  %7 = landingpad { ptr, i32 }
          catch ptr null
  %8 = extractvalue { ptr, i32 } %7, 0
  call void @__clang_call_terminate(ptr %8) #22
  unreachable

_ZN6icu_7527LocalUResourceBundlePointerD2Ev.exit: ; preds = %new.notnull.i, %if.end26, %cleanup, %if.then.i
  %retval.018 = phi ptr [ null, %cleanup ], [ null, %if.then.i ], [ null, %if.end26 ], [ %call.i, %new.notnull.i ]
  call void @_ZN6icu_7515MaybeStackArrayIcLi40EED1Ev(ptr noundef nonnull align 8 dereferenceable(53) %namebuf) #20
  br label %cleanup32

ehcleanup:                                        ; preds = %lpad.i, %lpad9
  %.pn = phi { ptr, i32 } [ %6, %lpad.i ], [ %5, %lpad9 ]
  call void @_ZN6icu_7515MaybeStackArrayIcLi40EED1Ev(ptr noundef nonnull align 8 dereferenceable(53) %namebuf) #20
  br label %ehcleanup33

cleanup32:                                        ; preds = %if.end, %_ZN6icu_7527LocalUResourceBundlePointerD2Ev.exit
  %retval.1 = phi ptr [ %retval.018, %_ZN6icu_7527LocalUResourceBundlePointerD2Ev.exit ], [ null, %if.end ]
  call void @_ZN6icu_7513UnicodeStringD1Ev(ptr noundef nonnull align 8 dereferenceable(64) %name) #20
  br label %return

ehcleanup33:                                      ; preds = %ehcleanup, %lpad
  %.pn.pn = phi { ptr, i32 } [ %.pn, %ehcleanup ], [ %1, %lpad ]
  call void @_ZN6icu_7513UnicodeStringD1Ev(ptr noundef nonnull align 8 dereferenceable(64) %name) #20
  resume { ptr, i32 } %.pn.pn

return:                                           ; preds = %entry, %cleanup32
  %retval.2 = phi ptr [ %retval.1, %cleanup32 ], [ null, %entry ]
  ret ptr %retval.2
}